; Function Attrs: mustprogress nounwind uwtable
define internal void @_ZN7testing8internal30ValuesInIteratorRangeGeneratorIN12_GLOBAL__N_15ParamEE8Iterator7AdvanceEv(ptr noundef nonnull align 8 captures(none) dereferenceable(32) %0) unnamed_addr #4 align 2 {
  %2 = getelementptr inbounds nuw i8, ptr %0, i64 16
  %3 = load ptr, ptr %2, align 8, !tbaa !169
  %4 = getelementptr inbounds nuw i8, ptr %3, i64 32
  store ptr %4, ptr %2, align 8, !tbaa !169
  %5 = getelementptr inbounds nuw i8, ptr %0, i64 24
  %6 = load ptr, ptr %5, align 8, !tbaa !81
  store ptr null, ptr %5, align 8, !tbaa !81
  %.not.i.i = icmp eq ptr %6, null
  br i1 %.not.i.i, label %_ZNSt10unique_ptrIKN12_GLOBAL__N_15ParamESt14default_deleteIS2_EE5resetEPS2_.exit, label %_ZNKSt14default_deleteIKN12_GLOBAL__N_15ParamEEclEPS2_.exit.i.i

_ZNKSt14default_deleteIKN12_GLOBAL__N_15ParamEEclEPS2_.exit.i.i: ; preds = %1
  tail call void @_ZdlPvm(ptr noundef nonnull %6, i64 noundef 32) #38
  br label %_ZNSt10unique_ptrIKN12_GLOBAL__N_15ParamESt14default_deleteIS2_EE5resetEPS2_.exit

_ZNSt10unique_ptrIKN12_GLOBAL__N_15ParamESt14default_deleteIS2_EE5resetEPS2_.exit: ; preds = %1, %_ZNKSt14default_deleteIKN12_GLOBAL__N_15ParamEEclEPS2_.exit.i.i
  ret void
}